target datalayout = "e-m:e-p270:32:32-p271:32:32-p272:64:64-i64:64-i128:128-f80:128-n8:16:32:64-S128"
target triple = "x86_64-pc-linux-gnu"

%"class.clang::Expr" = type { %"class.clang::ValueStmt", %"class.clang::QualType" }
%"class.clang::ValueStmt" = type { %"class.clang::Stmt" }
%"class.clang::Stmt" = type { %union.anon }
%union.anon = type { %"class.clang::Stmt::PseudoObjectExprBitfields" }
%"class.clang::Stmt::PseudoObjectExprBitfields" = type { i64 }
%"class.clang::QualType" = type { %"class.llvm::PointerIntPair" }
%"class.llvm::PointerIntPair" = type { %"struct.llvm::detail::PunnedPointer" }
%"struct.llvm::detail::PunnedPointer" = type { [8 x i8] }
%"class.clang::Stmt::ExprBitfields" = type <{ i8, i16, i8 }>
%"class.clang::SourceLocation" = type { i32 }
%"class.clang::SourceRange" = type { %"class.clang::SourceLocation", %"class.clang::SourceLocation" }
%"class.clang::CXXNoexceptExpr" = type { %"class.clang::Expr", ptr, %"class.clang::SourceRange" }

; Function Attrs: mustprogress nounwind uwtable
define linkonce_odr hidden noundef i64 @_ZN4llvm12NextPowerOf2Em(i64 noundef %0) #0 comdat {
  %2 = alloca i64, align 8
  store i64 %0, ptr %2, align 8
  %3 = load i64, ptr %2, align 8
  %4 = lshr i64 %3, 1
  %5 = load i64, ptr %2, align 8
  %6 = or i64 %5, %4
  store i64 %6, ptr %2, align 8
  %7 = load i64, ptr %2, align 8
  %8 = lshr i64 %7, 2
  %9 = load i64, ptr %2, align 8
  %10 = or i64 %9, %8
  store i64 %10, ptr %2, align 8
  %11 = load i64, ptr %2, align 8
  %12 = lshr i64 %11, 4
  %13 = load i64, ptr %2, align 8
  %14 = or i64 %13, %12
  store i64 %14, ptr %2, align 8
  %15 = load i64, ptr %2, align 8
  %16 = lshr i64 %15, 8
  %17 = load i64, ptr %2, align 8
  %18 = or i64 %17, %16
  store i64 %18, ptr %2, align 8
  %19 = load i64, ptr %2, align 8
  %20 = lshr i64 %19, 16
  %21 = load i64, ptr %2, align 8
  %22 = or i64 %21, %20
  store i64 %22, ptr %2, align 8
  %23 = load i64, ptr %2, align 8
  %24 = lshr i64 %23, 32
  %25 = load i64, ptr %2, align 8
  %26 = or i64 %25, %24
  store i64 %26, ptr %2, align 8
  %27 = load i64, ptr %2, align 8
  %28 = add i64 %27, 1
  ret i64 %28
}

; Function Attrs: mustprogress nounwind uwtable
define linkonce_odr hidden noundef zeroext i8 @_ZN4llvm13to_underlyingIN5clang19ExprDependenceScope14ExprDependenceEEENSt15underlying_typeIT_E4typeES5_(i8 noundef zeroext %0) #0 comdat {
  %2 = alloca i8, align 1
  store i8 %0, ptr %2, align 1
  %3 = load i8, ptr %2, align 1
  ret i8 %3
}

; Function Attrs: mustprogress nounwind uwtable
define linkonce_odr hidden noundef zeroext i8 @_ZN4llvm17BitmaskEnumDetailorIN5clang19ExprDependenceScope14ExprDependenceEvEET_S5_S5_(i8 noundef zeroext %0, i8 noundef zeroext %1) #0 comdat {
  %3 = alloca i8, align 1
  %4 = alloca i8, align 1
  store i8 %0, ptr %3, align 1
  store i8 %1, ptr %4, align 1
  %5 = load i8, ptr %3, align 1
  %6 = call noundef zeroext i8 @_ZN4llvm17BitmaskEnumDetail10UnderlyingIN5clang19ExprDependenceScope14ExprDependenceEEENSt15underlying_typeIT_E4typeES6_(i8 noundef zeroext %5)
  %7 = zext i8 %6 to i32
  %8 = load i8, ptr %4, align 1
  %9 = call noundef zeroext i8 @_ZN4llvm17BitmaskEnumDetail10UnderlyingIN5clang19ExprDependenceScope14ExprDependenceEEENSt15underlying_typeIT_E4typeES6_(i8 noundef zeroext %8)
  %10 = zext i8 %9 to i32
  %11 = or i32 %7, %10
  %12 = trunc i32 %11 to i8
  ret i8 %12
}

; Function Attrs: mustprogress nounwind uwtable
define linkonce_odr hidden noundef zeroext i8 @_ZN4llvm17BitmaskEnumDetail4MaskIN5clang19ExprDependenceScope14ExprDependenceEEENSt15underlying_typeIT_E4typeEv() #0 comdat {
  %1 = call noundef i64 @_ZN4llvm12NextPowerOf2Em(i64 noundef 16)
  %2 = sub i64 %1, 1
  %3 = trunc i64 %2 to i8
  ret i8 %3
}

; Function Attrs: mustprogress nounwind uwtable
define linkonce_odr hidden noundef zeroext i8 @_ZN4llvm17BitmaskEnumDetail10UnderlyingIN5clang19ExprDependenceScope14ExprDependenceEEENSt15underlying_typeIT_E4typeES6_(i8 noundef zeroext %0) #0 comdat {
  %2 = alloca i8, align 1
  %3 = alloca i8, align 1
  store i8 %0, ptr %2, align 1
  %4 = load i8, ptr %2, align 1
  %5 = call noundef zeroext i8 @_ZN4llvm13to_underlyingIN5clang19ExprDependenceScope14ExprDependenceEEENSt15underlying_typeIT_E4typeES5_(i8 noundef zeroext %4)
  store i8 %5, ptr %3, align 1
  %6 = load i8, ptr %3, align 1
  ret i8 %6
}

; Function Attrs: mustprogress nounwind uwtable
define linkonce_odr noundef nonnull align 1 dereferenceable(1) ptr @_ZN4llvm17BitmaskEnumDetailoRIN5clang19ExprDependenceScope14ExprDependenceEvEERT_S6_S5_(ptr noundef nonnull align 1 dereferenceable(1) %0, i8 noundef zeroext %1) #0 comdat {
  %3 = alloca ptr, align 8
  %4 = alloca i8, align 1
  store ptr %0, ptr %3, align 8
  store i8 %1, ptr %4, align 1
  %5 = load ptr, ptr %3, align 8
  %6 = load i8, ptr %5, align 1
  %7 = load i8, ptr %4, align 1
  %8 = call noundef zeroext i8 @_ZN4llvm17BitmaskEnumDetailorIN5clang19ExprDependenceScope14ExprDependenceEvEET_S5_S5_(i8 noundef zeroext %6, i8 noundef zeroext %7)
  %9 = load ptr, ptr %3, align 8
  store i8 %8, ptr %9, align 1
  %10 = load ptr, ptr %3, align 8
  ret ptr %10
}

; Function Attrs: mustprogress nounwind uwtable
define linkonce_odr hidden noundef zeroext i8 @_ZN4llvm17BitmaskEnumDetailanIN5clang19ExprDependenceScope14ExprDependenceEvEET_S5_S5_(i8 noundef zeroext %0, i8 noundef zeroext %1) #0 comdat {
  %3 = alloca i8, align 1
  %4 = alloca i8, align 1
  store i8 %0, ptr %3, align 1
  store i8 %1, ptr %4, align 1
  %5 = load i8, ptr %3, align 1
  %6 = call noundef zeroext i8 @_ZN4llvm17BitmaskEnumDetail10UnderlyingIN5clang19ExprDependenceScope14ExprDependenceEEENSt15underlying_typeIT_E4typeES6_(i8 noundef zeroext %5)
  %7 = zext i8 %6 to i32
  %8 = load i8, ptr %4, align 1
  %9 = call noundef zeroext i8 @_ZN4llvm17BitmaskEnumDetail10UnderlyingIN5clang19ExprDependenceScope14ExprDependenceEEENSt15underlying_typeIT_E4typeES6_(i8 noundef zeroext %8)
  %10 = zext i8 %9 to i32
  %11 = and i32 %7, %10
  %12 = trunc i32 %11 to i8
  ret i8 %12
}

; Function Attrs: mustprogress nounwind uwtable
define linkonce_odr hidden noundef zeroext i8 @_ZN4llvm17BitmaskEnumDetailcoIN5clang19ExprDependenceScope14ExprDependenceEvEET_S5_(i8 noundef zeroext %0) #0 comdat {
  %2 = alloca i8, align 1
  store i8 %0, ptr %2, align 1
  %3 = load i8, ptr %2, align 1
  %4 = call noundef zeroext i8 @_ZN4llvm17BitmaskEnumDetail10UnderlyingIN5clang19ExprDependenceScope14ExprDependenceEEENSt15underlying_typeIT_E4typeES6_(i8 noundef zeroext %3)
  %5 = zext i8 %4 to i32
  %6 = xor i32 %5, -1
  %7 = call noundef zeroext i8 @_ZN4llvm17BitmaskEnumDetail4MaskIN5clang19ExprDependenceScope14ExprDependenceEEENSt15underlying_typeIT_E4typeEv()
  %8 = zext i8 %7 to i32
  %9 = and i32 %6, %8
  %10 = trunc i32 %9 to i8
  ret i8 %10
}

; Function Attrs: mustprogress nounwind uwtable
define linkonce_odr hidden noundef zeroext i8 @_ZNK5clang4Expr13getDependenceEv(ptr noundef nonnull align 8 dereferenceable(16) %0) #0 comdat align 2 {
  %2 = alloca ptr, align 8
  store ptr %0, ptr %2, align 8
  %3 = load ptr, ptr %2, align 8
  %4 = getelementptr inbounds nuw %"class.clang::Stmt", ptr %3, i32 0, i32 0
  %5 = getelementptr inbounds nuw %"class.clang::Stmt::ExprBitfields", ptr %4, i32 0, i32 1
  %6 = load i16, ptr %5, align 1
  %7 = lshr i16 %6, 5
  %8 = and i16 %7, 31
  %9 = zext i16 %8 to i32
  %10 = trunc i32 %9 to i8
  ret i8 %10
}

; Function Attrs: mustprogress nounwind uwtable
define linkonce_odr hidden noundef ptr @_ZNK5clang15CXXNoexceptExpr10getOperandEv(ptr noundef nonnull align 8 dereferenceable(32) %0) #0 comdat align 2 {
  %2 = alloca ptr, align 8
  store ptr %0, ptr %2, align 8
  %3 = load ptr, ptr %2, align 8
  %4 = getelementptr inbounds nuw %"class.clang::CXXNoexceptExpr", ptr %3, i32 0, i32 1
  %5 = load ptr, ptr %4, align 8
  ret ptr %5
}

; Function Attrs: mustprogress nounwind uwtable
define dso_local noundef zeroext i8 @_ZN5clang17computeDependenceEPNS_15CXXNoexceptExprENS_14CanThrowResultE(ptr noundef %0, i32 noundef %1) #0 {
  %3 = alloca ptr, align 8
  %4 = alloca i32, align 4
  %5 = alloca i8, align 1
  store ptr %0, ptr %3, align 8
  store i32 %1, ptr %4, align 4
  %6 = load ptr, ptr %3, align 8
  %7 = call noundef ptr @_ZNK5clang15CXXNoexceptExpr10getOperandEv(ptr noundef nonnull align 8 dereferenceable(32) %6)
  %8 = call noundef zeroext i8 @_ZNK5clang4Expr13getDependenceEv(ptr noundef nonnull align 8 dereferenceable(16) %7)
  %9 = call noundef zeroext i8 @_ZN4llvm17BitmaskEnumDetailcoIN5clang19ExprDependenceScope14ExprDependenceEvEET_S5_(i8 noundef zeroext 12)
  %10 = call noundef zeroext i8 @_ZN4llvm17BitmaskEnumDetailanIN5clang19ExprDependenceScope14ExprDependenceEvEET_S5_S5_(i8 noundef zeroext %8, i8 noundef zeroext %9)
  store i8 %10, ptr %5, align 1
  %11 = load i32, ptr %4, align 4
  %12 = icmp eq i32 %11, 1
  br i1 %12, label %13, label %15

13:                                               ; preds = %2
  %14 = call noundef nonnull align 1 dereferenceable(1) ptr @_ZN4llvm17BitmaskEnumDetailoRIN5clang19ExprDependenceScope14ExprDependenceEvEERT_S6_S5_(ptr noundef nonnull align 1 dereferenceable(1) %5, i8 noundef zeroext 10)
  br label %15

15:                                               ; preds = %13, %2
  %16 = load i8, ptr %5, align 1
  ret i8 %16
}