; Function Attrs: mustprogress nofree norecurse nosync nounwind willreturn memory(read, inaccessiblemem: none) uwtable
define dso_local noundef zeroext range(i8 0, 32) i8 @_ZN5clang17computeDependenceEPNS_15CXXNoexceptExprENS_14CanThrowResultE(ptr noundef readonly captures(none) %0, i32 noundef %1) local_unnamed_addr #0 {
  %3 = getelementptr inbounds nuw i8, ptr %0, i64 16
  %4 = load ptr, ptr %3, align 8
  %5 = getelementptr inbounds nuw i8, ptr %4, i64 1
  %6 = load i16, ptr %5, align 1
  %7 = lshr i16 %6, 5
  %8 = trunc i16 %7 to i8
  %9 = and i8 %8, 19
  %10 = icmp eq i32 %1, 1
  %11 = or i8 %9, 10
  %spec.select = select i1 %10, i8 %11, i8 %9
  ret i8 %spec.select
}